target datalayout = "e-m:e-p270:32:32-p271:32:32-p272:64:64-i64:64-i128:128-f80:128-n8:16:32:64-S128"
target triple = "x86_64-pc-linux-gnu"

%struct.Node = type { i32 }
%struct.ParseState = type { ptr, ptr, i32, i32, ptr, ptr, ptr, ptr, ptr, ptr, i8, ptr, ptr, ptr, ptr, ptr, ptr, i8, ptr, i32, i32, ptr, ptr, i8, i8, ptr, i8, i8, i8, i8, i8, ptr, ptr, ptr, ptr, ptr, ptr }

@.str.15 = private unnamed_addr constant [9 x i8] c"?column?\00", align 1

; Function Attrs: nounwind uwtable
define dso_local ptr @FigureColname(ptr noundef %0) #0 {
  %2 = alloca ptr, align 8
  %3 = alloca ptr, align 8
  %4 = alloca ptr, align 8
  %5 = alloca i32, align 4
  store ptr %0, ptr %3, align 8
  call void @llvm.lifetime.start.p0(i64 8, ptr %4) #8
  store ptr null, ptr %4, align 8
  %6 = load ptr, ptr %3, align 8
  %7 = call i32 @FigureColnameInternal(ptr noundef %6, ptr noundef %4)
  %8 = load ptr, ptr %4, align 8
  %9 = icmp ne ptr %8, null
  br i1 %9, label %10, label %12

10:                                               ; preds = %1
  %11 = load ptr, ptr %4, align 8
  store ptr %11, ptr %2, align 8
  store i32 1, ptr %5, align 4
  br label %13

12:                                               ; preds = %1
  store ptr @.str.15, ptr %2, align 8
  store i32 1, ptr %5, align 4
  br label %13

13:                                               ; preds = %12, %10
  call void @llvm.lifetime.end.p0(i64 8, ptr %4) #8
  %14 = load ptr, ptr %2, align 8
  ret ptr %14
}

; Function Attrs: nounwind uwtable
define dso_local ptr @transformTargetEntry(ptr noundef %0, ptr noundef %1, ptr noundef %2, i32 noundef %3, ptr noundef %4, i1 noundef zeroext %5) #0 {
  %7 = alloca ptr, align 8
  %8 = alloca ptr, align 8
  %9 = alloca ptr, align 8
  %10 = alloca i32, align 4
  %11 = alloca ptr, align 8
  %12 = alloca i8, align 1
  store ptr %0, ptr %7, align 8
  store ptr %1, ptr %8, align 8
  store ptr %2, ptr %9, align 8
  store i32 %3, ptr %10, align 4
  store ptr %4, ptr %11, align 8
  %13 = zext i1 %5 to i8
  store i8 %13, ptr %12, align 1
  %14 = load ptr, ptr %9, align 8
  %15 = icmp eq ptr %14, null
  br i1 %15, label %16, label %32

16:                                               ; preds = %6
  %17 = load i32, ptr %10, align 4
  %18 = icmp eq i32 %17, 16
  br i1 %18, label %19, label %26

19:                                               ; preds = %16
  %20 = load ptr, ptr %8, align 8
  %21 = getelementptr inbounds nuw %struct.Node, ptr %20, i32 0, i32 0
  %22 = load i32, ptr %21, align 4
  %23 = icmp eq i32 %22, 57
  br i1 %23, label %24, label %26

24:                                               ; preds = %19
  %25 = load ptr, ptr %8, align 8
  store ptr %25, ptr %9, align 8
  br label %31

26:                                               ; preds = %19, %16
  %27 = load ptr, ptr %7, align 8
  %28 = load ptr, ptr %8, align 8
  %29 = load i32, ptr %10, align 4
  %30 = call ptr @transformExpr(ptr noundef %27, ptr noundef %28, i32 noundef %29)
  store ptr %30, ptr %9, align 8
  br label %31

31:                                               ; preds = %26, %24
  br label %32

32:                                               ; preds = %31, %6
  %33 = load ptr, ptr %11, align 8
  %34 = icmp eq ptr %33, null
  br i1 %34, label %35, label %41

35:                                               ; preds = %32
  %36 = load i8, ptr %12, align 1, !range !4, !noundef !5
  %37 = trunc i8 %36 to i1
  br i1 %37, label %41, label %38

38:                                               ; preds = %35
  %39 = load ptr, ptr %8, align 8
  %40 = call ptr @FigureColname(ptr noundef %39)
  store ptr %40, ptr %11, align 8
  br label %41

41:                                               ; preds = %38, %35, %32
  %42 = load ptr, ptr %9, align 8
  %43 = load ptr, ptr %7, align 8
  %44 = getelementptr inbounds nuw %struct.ParseState, ptr %43, i32 0, i32 20
  %45 = load i32, ptr %44, align 4
  %46 = add i32 %45, 1
  store i32 %46, ptr %44, align 4
  %47 = trunc i32 %45 to i16
  %48 = load ptr, ptr %11, align 8
  %49 = load i8, ptr %12, align 1, !range !4, !noundef !5
  %50 = trunc i8 %49 to i1
  %51 = call ptr @makeTargetEntry(ptr noundef %42, i16 noundef signext %47, ptr noundef %48, i1 noundef zeroext %50)
  ret ptr %51
}