; Function Attrs: nounwind uwtable
define dso_local ptr @transformTargetEntry(ptr noundef %0, ptr noundef %1, ptr noundef %2, i32 noundef %3, ptr noundef %4, i1 noundef zeroext %5) local_unnamed_addr #0 {
  %7 = alloca ptr, align 8
  %8 = icmp eq ptr %2, null
  br i1 %8, label %9, label %16

9:                                                ; preds = %6
  %10 = icmp eq i32 %3, 16
  br i1 %10, label %11, label %14

11:                                               ; preds = %9
  %12 = load i32, ptr %1, align 4
  %13 = icmp eq i32 %12, 57
  br i1 %13, label %16, label %14

14:                                               ; preds = %11, %9
  %15 = tail call ptr @transformExpr(ptr noundef %0, ptr noundef %1, i32 noundef %3) #8
  br label %16

16:                                               ; preds = %11, %14, %6
  %.0 = phi ptr [ %15, %14 ], [ %2, %6 ], [ %1, %11 ]
  %17 = icmp ne ptr %4, null
  %brmerge = or i1 %17, %5
  br i1 %brmerge, label %21, label %18

18:                                               ; preds = %16
  call void @llvm.lifetime.start.p0(i64 8, ptr nonnull %7) #8
  store ptr null, ptr %7, align 8
  %19 = call fastcc i32 @FigureColnameInternal(ptr noundef %1, ptr noundef %7)
  %20 = load ptr, ptr %7, align 8
  %.not.i = icmp eq ptr %20, null
  %.str.15..i = select i1 %.not.i, ptr @.str.15, ptr %20
  call void @llvm.lifetime.end.p0(i64 8, ptr nonnull %7) #8
  br label %21

21:                                               ; preds = %16, %18
  %.013 = phi ptr [ %.str.15..i, %18 ], [ %4, %16 ]
  %22 = getelementptr inbounds nuw i8, ptr %0, i64 148
  %23 = load i32, ptr %22, align 4
  %24 = add i32 %23, 1
  store i32 %24, ptr %22, align 4
  %25 = trunc i32 %23 to i16
  %26 = call ptr @makeTargetEntry(ptr noundef %.0, i16 noundef signext %25, ptr noundef %.013, i1 noundef zeroext %5) #8
  ret ptr %26
}